Certificate:
    Data:
        Version: 3 (0x2)
        Serial Number: 2 (0x2)
        Signature Algorithm: sha256WithRSAEncryption
        Issuer: CN=someName, OU=rsyslog, O=SomeOrg, C=US
        Validity
            Not Before: Jul  6 12:59:25 2023 GMT
            Not After : Jun 12 12:59:25 2123 GMT
        Subject: C=DE, ST=NRW, O=Adiscon GmbH, OU=rsyslog, CN=rsyslog revoked certificate test/emailAddress=alorbach@adiscon.com
        Subject Public Key Info:
            Public Key Algorithm: rsaEncryption
                RSA Public-Key: (2048 bit)
                Modulus:
                    00:bf:fe:14:5d:e9:9c:6c:67:15:3c:d4:49:9d:5b:
                    2a:ea:43:c2:bc:9e:d0:3a:5e:55:2f:68:00:2b:0b:
                    da:dc:cf:f7:d9:a7:1b:a0:a3:31:dd:a8:07:13:9e:
                    dc:36:75:b8:34:ea:17:1a:f6:1d:db:33:1e:45:36:
                    80:ae:9c:93:a6:02:4e:26:f8:07:de:1c:ce:9e:e7:
                    4f:25:d7:59:24:49:5e:34:44:54:87:ab:e0:6d:5a:
                    24:41:19:bf:33:c3:a5:11:d6:50:c0:f7:6d:2d:12:
                    03:cc:0b:b9:ea:b2:85:5d:91:ad:84:ce:be:9b:0b:
                    c2:eb:01:97:b8:3a:dc:1c:b8:d2:43:e8:96:5e:f0:
                    84:e2:98:18:7b:15:c6:af:0c:bb:8e:98:96:21:7b:
                    cd:6f:0d:9f:84:59:bf:91:a8:ba:6a:c9:bc:5f:4a:
                    f3:12:4d:33:e7:dc:b0:38:e9:71:d8:ef:d0:fd:9e:
                    1f:d0:5a:bb:a9:3a:91:d8:1e:a7:9e:fa:ac:13:5b:
                    a3:ad:e8:87:0b:f4:b5:f8:a8:0d:a7:b1:59:40:26:
                    42:7a:05:e4:31:66:f8:05:d1:fd:97:5f:ae:93:0a:
                    d9:45:6c:a3:df:32:ee:11:78:83:2f:ba:36:17:76:
                    98:83:d6:08:fb:31:0e:81:7d:57:80:10:3c:de:0d:
                    4b:0d
                Exponent: 65537 (0x10001)
        X509v3 extensions:
            X509v3 Basic Constraints: 
                CA:FALSE
            Netscape Comment: 
                OpenSSL Generated Certificate
            X509v3 Subject Key Identifier: 
                20:CE:A2:54:99:CF:22:9A:5C:BB:D4:1E:B0:1E:43:73:63:72:AA:DE
            X509v3 Authority Key Identifier: 
                keyid:B0:9F:67:33:2C:88:88:89:1F:44:62:74:9D:25:FF:C0:06:13:5D:D6

    Signature Algorithm: sha256WithRSAEncryption
         33:65:28:98:94:9b:f5:57:0d:bf:02:c2:67:93:8e:8e:77:03:
         9b:c7:7a:47:53:29:a4:dd:a6:a1:5e:2a:0a:ed:19:02:80:90:
         b3:97:1f:06:4c:9c:c5:5f:6c:16:f9:12:fb:dd:da:29:88:b7:
         2c:91:0b:ab:53:79:7a:6e:76:20:fe:fa:b1:99:c2:2b:50:26:
         7b:cc:8c:75:98:35:95:79:56:43:90:a0:95:5e:98:09:10:4d:
         ea:c0:1c:bb:c0:7b:a7:8a:9b:21:70:85:65:83:4d:ee:65:ef:
         10:d3:63:95:fd:51:9d:6c:41:7b:af:af:9c:e7:34:74:a1:7a:
         86:0a:8e:f2:2a:06:68:77:76:fa:fc:64:bc:28:1d:8b:53:7a:
         cf:62:0f:87:a9:85:54:8c:a5:41:c3:61:0b:cf:96:c1:fa:81:
         a5:31:63:f3:cb:17:37:58:6e:d9:30:97:fb:57:2f:31:63:e8:
         26:0e:82:49:e2:a9:9b:ed:39:7b:24:4e:42:8d:34:74:3a:dc:
         b7:c5:d6:15:e9:66:28:2d:3c:e0:26:44:76:66:4a:32:94:11:
         c8:1f:1c:b2:dc:44:69:63:f7:2d:87:b5:89:4a:40:fb:e4:14:
         68:dc:8a:76:40:93:35:e2:ac:9a:4b:bc:af:c5:8a:8a:38:54:
         ef:69:01:4c:92:af:c0:07:d0:2f:7a:3c:9e:40:ac:56:07:d0:
         2b:1f:5f:d0:44:f9:70:e1:44:44:34:ba:fb:3d:54:85:4b:1d:
         ba:ea:ea:6a:91:0c:08:30:2d:bc:b8:ea:22:c1:16:7b:53:fe:
         40:2c:8d:f5:c6:c2:39:e6:11:1d:e2:2f:50:a6:76:9c:fd:b9:
         fa:d5:10:79:0e:e5:02:87:7d:96:e3:81:05:79:c9:a3:d8:f2:
         a0:b1:8b:0e:8d:33:73:15:6f:27:88:85:03:8a:c5:7a:77:f4:
         3f:7f:b8:65:97:5b:a0:a6:21:48:67:2c:a2:73:a2:ec:d6:6a:
         bd:d6:f2:e2:b1:5b
-----BEGIN CERTIFICATE-----
MIIEUTCCArmgAwIBAgIBAjANBgkqhkiG9w0BAQsFADBEMREwDwYDVQQDEwhzb21l
TmFtZTEQMA4GA1UECxMHcnN5c2xvZzEQMA4GA1UEChMHU29tZU9yZzELMAkGA1UE
BhMCVVMwIBcNMjMwNzA2MTI1OTI1WhgPMjEyMzA2MTIxMjU5MjVaMIGUMQswCQYD
VQQGEwJERTEMMAoGA1UECAwDTlJXMRUwEwYDVQQKDAxBZGlzY29uIEdtYkgxEDAO
BgNVBAsMB3JzeXNsb2cxKTAnBgNVBAMMIHJzeXNsb2cgcmV2b2tlZCBjZXJ0aWZp
Y2F0ZSB0ZXN0MSMwIQYJKoZIhvcNAQkBFhRhbG9yYmFjaEBhZGlzY29uLmNvbTCC
ASIwDQYJKoZIhvcNAQEBBQADggEPADCCAQoCggEBAL/+FF3pnGxnFTzUSZ1bKupD
wrye0DpeVS9oACsL2tzP99mnG6CjMd2oBxOe3DZ1uDTqFxr2HdszHkU2gK6ck6YC
Tib4B94czp7nTyXXWSRJXjREVIer4G1aJEEZvzPDpRHWUMD3bS0SA8wLueqyhV2R
rYTOvpsLwusBl7g63By40kPoll7whOKYGHsVxq8Mu46YliF7zW8Nn4RZv5GoumrJ
vF9K8xJNM+fcsDjpcdjv0P2eH9Bau6k6kdgep576rBNbo63ohwv0tfioDaexWUAm
QnoF5DFm+AXR/ZdfrpMK2UVso98y7hF4gy+6Nhd2mIPWCPsxDoF9V4AQPN4NSw0C
AwEAAaN7MHkwCQYDVR0TBAIwADAsBglghkgBhvhCAQ0EHxYdT3BlblNTTCBHZW5l
cmF0ZWQgQ2VydGlmaWNhdGUwHQYDVR0OBBYEFCDOolSZzyKaXLvUHrAeQ3Njcqre
MB8GA1UdIwQYMBaAFLCfZzMsiIiJH0RidJ0l/8AGE13WMA0GCSqGSIb3DQEBCwUA
A4IBgQAzZSiYlJv1Vw2/AsJnk46OdwObx3pHUymk3aahXioK7RkCgJCzlx8GTJzF
X2wW+RL73dopiLcskQurU3l6bnYg/vqxmcIrUCZ7zIx1mDWVeVZDkKCVXpgJEE3q
wBy7wHunipshcIVlg03uZe8Q02OV/VGdbEF7r6+c5zR0oXqGCo7yKgZod3b6/GS8
KB2LU3rPYg+HqYVUjKVBw2ELz5bB+oGlMWPzyxc3WG7ZMJf7Vy8xY+gmDoJJ4qmb
7Tl7JE5CjTR0Oty3xdYV6WYoLTzgJkR2ZkoylBHIHxyy3ERpY/cth7WJSkD75BRo
3Ip2QJM14qyaS7yvxYqKOFTvaQFMkq/AB9AvejyeQKxWB9ArH1/QRPlw4URENLr7
PVSFSx266upqkQwIMC28uOoiwRZ7U/5ALI31xsI55hEd4i9Qpnac/bn61RB5DuUC
h32W44EFecmj2PKgsYsOjTNzFW8niIUDisV6d/Q/f7hll1ugpiFIZyyic6Ls1mq9
1vLisVs=
-----END CERTIFICATE-----
