Certificate:
    Data:
        Version: 3 (0x2)
        Serial Number: 3 (0x3)
        Signature Algorithm: sha256WithRSAEncryption
        Issuer: CN=someName, OU=rsyslog, O=SomeOrg, C=US
        Validity
            Not Before: Jul  6 13:38:06 2023 GMT
            Not After : Jun 12 13:38:06 2123 GMT
        Subject: C=DE, ST=NRW, O=Adiscon GmbH, OU=rsyslog, CN=rsyslog revoked certificate test/emailAddress=alorbach@adiscon.com
        Subject Public Key Info:
            Public Key Algorithm: rsaEncryption
                RSA Public-Key: (2048 bit)
                Modulus:
                    00:bf:fe:14:5d:e9:9c:6c:67:15:3c:d4:49:9d:5b:
                    2a:ea:43:c2:bc:9e:d0:3a:5e:55:2f:68:00:2b:0b:
                    da:dc:cf:f7:d9:a7:1b:a0:a3:31:dd:a8:07:13:9e:
                    dc:36:75:b8:34:ea:17:1a:f6:1d:db:33:1e:45:36:
                    80:ae:9c:93:a6:02:4e:26:f8:07:de:1c:ce:9e:e7:
                    4f:25:d7:59:24:49:5e:34:44:54:87:ab:e0:6d:5a:
                    24:41:19:bf:33:c3:a5:11:d6:50:c0:f7:6d:2d:12:
                    03:cc:0b:b9:ea:b2:85:5d:91:ad:84:ce:be:9b:0b:
                    c2:eb:01:97:b8:3a:dc:1c:b8:d2:43:e8:96:5e:f0:
                    84:e2:98:18:7b:15:c6:af:0c:bb:8e:98:96:21:7b:
                    cd:6f:0d:9f:84:59:bf:91:a8:ba:6a:c9:bc:5f:4a:
                    f3:12:4d:33:e7:dc:b0:38:e9:71:d8:ef:d0:fd:9e:
                    1f:d0:5a:bb:a9:3a:91:d8:1e:a7:9e:fa:ac:13:5b:
                    a3:ad:e8:87:0b:f4:b5:f8:a8:0d:a7:b1:59:40:26:
                    42:7a:05:e4:31:66:f8:05:d1:fd:97:5f:ae:93:0a:
                    d9:45:6c:a3:df:32:ee:11:78:83:2f:ba:36:17:76:
                    98:83:d6:08:fb:31:0e:81:7d:57:80:10:3c:de:0d:
                    4b:0d
                Exponent: 65537 (0x10001)
        X509v3 extensions:
            X509v3 Basic Constraints: 
                CA:FALSE
            Netscape Comment: 
                OpenSSL Generated Certificate
            X509v3 Subject Key Identifier: 
                20:CE:A2:54:99:CF:22:9A:5C:BB:D4:1E:B0:1E:43:73:63:72:AA:DE
            X509v3 Authority Key Identifier: 
                keyid:B0:9F:67:33:2C:88:88:89:1F:44:62:74:9D:25:FF:C0:06:13:5D:D6

    Signature Algorithm: sha256WithRSAEncryption
         65:ac:7c:30:d0:01:ce:d7:ff:28:61:6c:8d:99:15:ce:45:22:
         8a:39:70:a4:a6:ce:48:94:e3:4b:8c:be:55:c4:66:96:49:49:
         4b:e0:4c:95:fd:73:02:54:3a:df:34:2f:96:16:48:ec:c2:23:
         3d:ee:b4:5a:dd:a0:c9:eb:85:f4:fd:e8:d5:8f:f3:dc:ce:4a:
         88:bb:be:19:81:3f:8b:0f:09:23:46:14:c9:f5:35:5a:cf:25:
         7c:92:df:b9:90:5d:ff:4f:21:40:9c:24:7c:0f:1f:3f:62:d1:
         7b:cc:40:7d:c6:61:49:f3:84:26:78:ed:87:70:06:9c:93:05:
         a5:c4:7e:60:3d:d0:4a:2c:e4:d6:e5:33:f8:07:dd:5a:0e:9a:
         93:17:50:29:1a:ff:66:61:d9:40:a7:fb:cc:7b:62:b7:9d:29:
         1a:2a:3d:7b:93:87:eb:52:4e:00:19:19:3c:4d:73:fc:3d:ed:
         eb:9d:92:30:bc:b0:ed:51:15:ce:b7:3c:00:09:0c:9d:6d:8b:
         2b:c9:f5:66:d4:49:44:58:3d:e7:61:3d:6b:21:05:ff:1d:55:
         59:dd:e4:a6:2f:e5:96:82:eb:24:33:2e:47:61:a5:f8:4d:ab:
         ad:fc:64:f8:8b:9e:0e:62:8c:16:1d:79:18:74:18:9c:a2:19:
         c3:24:0d:6e:45:63:f9:08:92:7d:44:0b:96:c7:48:84:72:97:
         22:23:bf:10:0a:d7:4e:43:8a:db:60:cd:5d:80:5e:71:fa:c2:
         b6:68:10:ee:cc:29:86:15:d3:d9:93:2a:cc:73:88:be:9f:ad:
         d0:c5:9c:a4:e4:86:38:e7:41:84:3a:d0:f3:67:1f:2c:40:d7:
         04:b1:ea:32:13:49:a5:82:1a:a5:6c:3f:5f:dc:fd:55:14:03:
         8b:d7:bd:01:9e:bc:c5:e4:a1:a8:a8:9d:bc:cd:1f:5b:fc:df:
         59:b7:0d:aa:47:a0:08:cd:6e:f7:c8:9d:d3:dd:4e:8b:aa:cc:
         54:20:a0:2b:63:96
-----BEGIN CERTIFICATE-----
MIIEUTCCArmgAwIBAgIBAzANBgkqhkiG9w0BAQsFADBEMREwDwYDVQQDEwhzb21l
TmFtZTEQMA4GA1UECxMHcnN5c2xvZzEQMA4GA1UEChMHU29tZU9yZzELMAkGA1UE
BhMCVVMwIBcNMjMwNzA2MTMzODA2WhgPMjEyMzA2MTIxMzM4MDZaMIGUMQswCQYD
VQQGEwJERTEMMAoGA1UECAwDTlJXMRUwEwYDVQQKDAxBZGlzY29uIEdtYkgxEDAO
BgNVBAsMB3JzeXNsb2cxKTAnBgNVBAMMIHJzeXNsb2cgcmV2b2tlZCBjZXJ0aWZp
Y2F0ZSB0ZXN0MSMwIQYJKoZIhvcNAQkBFhRhbG9yYmFjaEBhZGlzY29uLmNvbTCC
ASIwDQYJKoZIhvcNAQEBBQADggEPADCCAQoCggEBAL/+FF3pnGxnFTzUSZ1bKupD
wrye0DpeVS9oACsL2tzP99mnG6CjMd2oBxOe3DZ1uDTqFxr2HdszHkU2gK6ck6YC
Tib4B94czp7nTyXXWSRJXjREVIer4G1aJEEZvzPDpRHWUMD3bS0SA8wLueqyhV2R
rYTOvpsLwusBl7g63By40kPoll7whOKYGHsVxq8Mu46YliF7zW8Nn4RZv5GoumrJ
vF9K8xJNM+fcsDjpcdjv0P2eH9Bau6k6kdgep576rBNbo63ohwv0tfioDaexWUAm
QnoF5DFm+AXR/ZdfrpMK2UVso98y7hF4gy+6Nhd2mIPWCPsxDoF9V4AQPN4NSw0C
AwEAAaN7MHkwCQYDVR0TBAIwADAsBglghkgBhvhCAQ0EHxYdT3BlblNTTCBHZW5l
cmF0ZWQgQ2VydGlmaWNhdGUwHQYDVR0OBBYEFCDOolSZzyKaXLvUHrAeQ3Njcqre
MB8GA1UdIwQYMBaAFLCfZzMsiIiJH0RidJ0l/8AGE13WMA0GCSqGSIb3DQEBCwUA
A4IBgQBlrHww0AHO1/8oYWyNmRXORSKKOXCkps5IlONLjL5VxGaWSUlL4EyV/XMC
VDrfNC+WFkjswiM97rRa3aDJ64X0/ejVj/PczkqIu74ZgT+LDwkjRhTJ9TVazyV8
kt+5kF3/TyFAnCR8Dx8/YtF7zEB9xmFJ84QmeO2HcAackwWlxH5gPdBKLOTW5TP4
B91aDpqTF1ApGv9mYdlAp/vMe2K3nSkaKj17k4frUk4AGRk8TXP8Pe3rnZIwvLDt
URXOtzwACQydbYsryfVm1ElEWD3nYT1rIQX/HVVZ3eSmL+WWguskMy5HYaX4Taut
/GT4i54OYowWHXkYdBicohnDJA1uRWP5CJJ9RAuWx0iEcpciI78QCtdOQ4rbYM1d
gF5x+sK2aBDuzCmGFdPZkyrMc4i+n63QxZyk5IY450GEOtDzZx8sQNcEseoyE0ml
ghqlbD9f3P1VFAOL170BnrzF5KGoqJ28zR9b/N9Ztw2qR6AIzW73yJ3T3U6LqsxU
IKArY5Y=
-----END CERTIFICATE-----
