Certificate:
    Data:
        Version: 3 (0x2)
        Serial Number: 1 (0x1)
        Signature Algorithm: sha256WithRSAEncryption
        Issuer: CN=someName, OU=rsyslog, O=SomeOrg, C=US
        Validity
            Not Before: Jul  6 12:57:29 2023 GMT
            Not After : Jun 12 12:57:29 2123 GMT
        Subject: C=DE, ST=NRW, O=Adiscon GmbH, OU=rsyslog, CN=rsyslog revoked certificate test/emailAddress=alorbach@adiscon.com
        Subject Public Key Info:
            Public Key Algorithm: rsaEncryption
                RSA Public-Key: (2048 bit)
                Modulus:
                    00:bf:fe:14:5d:e9:9c:6c:67:15:3c:d4:49:9d:5b:
                    2a:ea:43:c2:bc:9e:d0:3a:5e:55:2f:68:00:2b:0b:
                    da:dc:cf:f7:d9:a7:1b:a0:a3:31:dd:a8:07:13:9e:
                    dc:36:75:b8:34:ea:17:1a:f6:1d:db:33:1e:45:36:
                    80:ae:9c:93:a6:02:4e:26:f8:07:de:1c:ce:9e:e7:
                    4f:25:d7:59:24:49:5e:34:44:54:87:ab:e0:6d:5a:
                    24:41:19:bf:33:c3:a5:11:d6:50:c0:f7:6d:2d:12:
                    03:cc:0b:b9:ea:b2:85:5d:91:ad:84:ce:be:9b:0b:
                    c2:eb:01:97:b8:3a:dc:1c:b8:d2:43:e8:96:5e:f0:
                    84:e2:98:18:7b:15:c6:af:0c:bb:8e:98:96:21:7b:
                    cd:6f:0d:9f:84:59:bf:91:a8:ba:6a:c9:bc:5f:4a:
                    f3:12:4d:33:e7:dc:b0:38:e9:71:d8:ef:d0:fd:9e:
                    1f:d0:5a:bb:a9:3a:91:d8:1e:a7:9e:fa:ac:13:5b:
                    a3:ad:e8:87:0b:f4:b5:f8:a8:0d:a7:b1:59:40:26:
                    42:7a:05:e4:31:66:f8:05:d1:fd:97:5f:ae:93:0a:
                    d9:45:6c:a3:df:32:ee:11:78:83:2f:ba:36:17:76:
                    98:83:d6:08:fb:31:0e:81:7d:57:80:10:3c:de:0d:
                    4b:0d
                Exponent: 65537 (0x10001)
        X509v3 extensions:
            X509v3 Basic Constraints: 
                CA:FALSE
            Netscape Comment: 
                OpenSSL Generated Certificate
            X509v3 Subject Key Identifier: 
                20:CE:A2:54:99:CF:22:9A:5C:BB:D4:1E:B0:1E:43:73:63:72:AA:DE
            X509v3 Authority Key Identifier: 
                keyid:B0:9F:67:33:2C:88:88:89:1F:44:62:74:9D:25:FF:C0:06:13:5D:D6

    Signature Algorithm: sha256WithRSAEncryption
         60:37:92:c5:17:64:ed:64:a3:28:c2:81:60:a2:20:ac:e4:2d:
         ce:bd:4b:4c:6e:ea:70:a1:2c:2d:d9:1c:94:cb:d1:81:ca:53:
         c2:51:24:af:da:af:90:11:98:52:da:25:2b:19:59:82:58:d6:
         84:a5:63:d4:89:05:a9:12:bf:5d:8b:c8:1f:27:b0:a7:65:7e:
         0c:18:b7:3d:4e:ec:c5:34:b3:d3:92:f7:de:e5:19:1b:b9:e8:
         47:a7:ca:22:13:c4:63:4f:44:09:70:e2:90:f3:a7:5e:e0:5d:
         9c:f7:be:ea:1e:88:e7:c2:d3:b6:35:6d:b0:3b:84:8f:03:94:
         a8:c0:c1:ed:27:17:9a:4d:f7:33:23:1e:76:3a:63:38:f0:59:
         39:98:ce:89:4b:2a:89:0e:12:bf:25:b5:d6:04:20:88:f0:65:
         9d:70:90:67:e8:28:8e:09:fa:d9:ab:c9:a9:0f:28:63:10:bb:
         24:2d:44:2f:6b:fb:7c:d2:38:01:ab:d2:33:2d:50:f4:75:80:
         9e:4f:d2:26:6c:31:23:44:8e:d5:a3:51:56:cf:d9:38:f6:d0:
         84:c0:fb:6f:c1:66:9c:e7:dd:51:4f:42:bb:d7:cc:ba:35:e1:
         c6:a2:5c:4b:f2:1e:b7:e2:52:a5:83:97:ab:42:09:54:04:ed:
         4f:01:2d:cf:ee:44:b4:da:39:5c:da:30:d5:92:b6:04:11:8b:
         04:d7:6a:3a:28:6e:54:97:97:99:a3:ba:3a:48:1a:17:ef:49:
         05:fd:c5:e6:3f:c1:7c:ac:b0:45:62:ff:15:fd:13:1b:04:ba:
         72:23:32:0a:b8:4d:39:9a:31:15:4c:0a:d0:ef:a2:82:8f:2e:
         ad:3c:23:dd:59:12:08:6f:e0:5b:5e:5c:29:db:74:ff:8c:08:
         43:59:6a:a1:57:df:37:02:53:16:14:f7:c5:4b:47:61:1e:86:
         aa:2d:46:4d:b3:85:8a:ac:c3:8c:b5:87:90:01:4c:33:91:96:
         38:95:06:a7:36:90
-----BEGIN CERTIFICATE-----
MIIEUTCCArmgAwIBAgIBATANBgkqhkiG9w0BAQsFADBEMREwDwYDVQQDEwhzb21l
TmFtZTEQMA4GA1UECxMHcnN5c2xvZzEQMA4GA1UEChMHU29tZU9yZzELMAkGA1UE
BhMCVVMwIBcNMjMwNzA2MTI1NzI5WhgPMjEyMzA2MTIxMjU3MjlaMIGUMQswCQYD
VQQGEwJERTEMMAoGA1UECAwDTlJXMRUwEwYDVQQKDAxBZGlzY29uIEdtYkgxEDAO
BgNVBAsMB3JzeXNsb2cxKTAnBgNVBAMMIHJzeXNsb2cgcmV2b2tlZCBjZXJ0aWZp
Y2F0ZSB0ZXN0MSMwIQYJKoZIhvcNAQkBFhRhbG9yYmFjaEBhZGlzY29uLmNvbTCC
ASIwDQYJKoZIhvcNAQEBBQADggEPADCCAQoCggEBAL/+FF3pnGxnFTzUSZ1bKupD
wrye0DpeVS9oACsL2tzP99mnG6CjMd2oBxOe3DZ1uDTqFxr2HdszHkU2gK6ck6YC
Tib4B94czp7nTyXXWSRJXjREVIer4G1aJEEZvzPDpRHWUMD3bS0SA8wLueqyhV2R
rYTOvpsLwusBl7g63By40kPoll7whOKYGHsVxq8Mu46YliF7zW8Nn4RZv5GoumrJ
vF9K8xJNM+fcsDjpcdjv0P2eH9Bau6k6kdgep576rBNbo63ohwv0tfioDaexWUAm
QnoF5DFm+AXR/ZdfrpMK2UVso98y7hF4gy+6Nhd2mIPWCPsxDoF9V4AQPN4NSw0C
AwEAAaN7MHkwCQYDVR0TBAIwADAsBglghkgBhvhCAQ0EHxYdT3BlblNTTCBHZW5l
cmF0ZWQgQ2VydGlmaWNhdGUwHQYDVR0OBBYEFCDOolSZzyKaXLvUHrAeQ3Njcqre
MB8GA1UdIwQYMBaAFLCfZzMsiIiJH0RidJ0l/8AGE13WMA0GCSqGSIb3DQEBCwUA
A4IBgQBgN5LFF2TtZKMowoFgoiCs5C3OvUtMbupwoSwt2RyUy9GBylPCUSSv2q+Q
EZhS2iUrGVmCWNaEpWPUiQWpEr9di8gfJ7CnZX4MGLc9TuzFNLPTkvfe5RkbuehH
p8oiE8RjT0QJcOKQ86de4F2c977qHojnwtO2NW2wO4SPA5SowMHtJxeaTfczIx52
OmM48Fk5mM6JSyqJDhK/JbXWBCCI8GWdcJBn6CiOCfrZq8mpDyhjELskLUQva/t8
0jgBq9IzLVD0dYCeT9ImbDEjRI7Vo1FWz9k49tCEwPtvwWac591RT0K718y6NeHG
olxL8h634lKlg5erQglUBO1PAS3P7kS02jlc2jDVkrYEEYsE12o6KG5Ul5eZo7o6
SBoX70kF/cXmP8F8rLBFYv8V/RMbBLpyIzIKuE05mjEVTArQ76KCjy6tPCPdWRII
b+BbXlwp23T/jAhDWWqhV983AlMWFPfFS0dhHoaqLUZNs4WKrMOMtYeQAUwzkZY4
lQanNpA=
-----END CERTIFICATE-----
