Certificate:
    Data:
        Version: 3 (0x2)
        Serial Number: 4 (0x4)
        Signature Algorithm: sha256WithRSAEncryption
        Issuer: CN=someName, OU=rsyslog, O=SomeOrg, C=US
        Validity
            Not Before: Jul  6 13:52:50 2023 GMT
            Not After : Jun 12 13:52:50 2123 GMT
        Subject: C=US, ST=CA, O=SomeComp, OU=SomeUnit, CN=rsyslog/emailAddress=alorbach@adiscon.com
        Subject Public Key Info:
            Public Key Algorithm: rsaEncryption
                RSA Public-Key: (3072 bit)
                Modulus:
                    00:9d:91:da:d8:2e:3d:9d:ae:85:c3:c5:a7:f6:a4:
                    66:f8:c8:91:91:b8:70:20:dc:ed:e8:23:ca:53:f7:
                    b8:52:43:f3:a7:eb:fb:df:8a:3b:2c:b0:13:fa:62:
                    d3:a1:53:a4:51:71:1f:68:d9:fd:bc:39:4a:fb:c9:
                    6a:df:f3:88:84:b0:80:bc:c0:f5:1b:42:11:f6:4c:
                    1a:d8:2c:62:0b:5d:50:64:30:9a:d3:db:c1:d5:7f:
                    39:53:e4:bd:e8:1e:04:9d:c9:12:e0:e4:57:29:29:
                    01:b9:f1:e5:bc:74:a6:e7:4b:61:e6:67:5c:6c:4e:
                    ee:ee:22:0c:1b:14:6d:e8:0c:6f:ee:ee:c3:b8:dd:
                    df:15:ed:7a:96:5b:cc:85:e5:e3:50:c4:ce:2b:bf:
                    b6:37:e6:20:fc:6e:45:7e:09:bd:84:7a:af:07:27:
                    f4:99:23:41:df:36:d8:29:31:a0:96:84:2f:fd:45:
                    2e:d4:b4:f9:fa:dc:8f:23:c0:e0:06:ad:ad:0a:72:
                    da:f4:3b:a1:cb:d6:a6:3b:ec:46:c4:95:f2:71:a5:
                    ad:08:1f:e7:06:18:0e:db:80:51:96:ba:24:f6:64:
                    02:6b:d3:f0:76:01:34:3a:72:02:e9:cb:d0:aa:62:
                    51:0c:8f:83:be:c0:47:99:d2:92:72:ed:53:a5:49:
                    05:d4:c9:a1:f4:4d:de:12:9d:1a:c8:17:84:f3:a2:
                    7c:67:47:82:4b:86:1e:73:86:e2:26:26:10:94:a3:
                    99:9b:08:99:78:9d:3d:33:5d:85:c2:46:65:94:ab:
                    70:b4:3b:c1:26:8b:11:b6:66:27:88:22:84:03:b5:
                    08:45:32:8c:81:23:be:62:dc:6f:a0:aa:5e:9f:03:
                    f7:a7:f5:03:70:3c:78:09:d0:84:44:8c:19:af:76:
                    f7:93:fc:af:c6:fd:db:d9:4c:cb:20:79:44:71:cb:
                    e6:55:61:a9:7a:af:0b:a3:a6:ed:e9:a9:11:af:fa:
                    a3:5d:ac:97:e7:ef:2b:b6:a8:37
                Exponent: 65537 (0x10001)
        X509v3 extensions:
            X509v3 Basic Constraints: 
                CA:FALSE
            Netscape Comment: 
                OpenSSL Generated Certificate
            X509v3 Subject Key Identifier: 
                6E:15:7E:C4:62:2B:92:6D:22:EE:0C:E4:C5:36:29:38:16:62:BE:89
            X509v3 Authority Key Identifier: 
                keyid:B0:9F:67:33:2C:88:88:89:1F:44:62:74:9D:25:FF:C0:06:13:5D:D6

    Signature Algorithm: sha256WithRSAEncryption
         64:b0:45:6b:0c:7c:2d:09:14:8e:78:93:85:ef:d2:31:aa:c3:
         59:2e:85:bf:29:e1:46:59:38:d4:fe:ea:c4:c1:83:a7:4a:1b:
         92:5e:e8:11:9c:21:48:9d:1e:cc:31:d8:31:00:72:fe:7b:c1:
         18:c4:f5:37:f3:3b:0e:1a:f6:3f:19:47:22:c9:87:01:e0:4c:
         f4:5d:36:0a:87:46:42:fc:6c:ab:26:ff:7d:ca:2c:19:97:ca:
         25:fc:70:66:4e:49:86:3e:81:0f:ee:e2:5c:3b:69:07:8b:c2:
         52:09:46:d8:67:af:84:54:bb:4f:f3:e0:da:07:c5:64:56:2d:
         fb:f9:55:13:53:1d:c6:78:63:40:22:23:4f:63:59:37:05:c7:
         46:b6:36:53:30:fe:9b:e6:01:0a:54:5b:be:1b:a4:72:c3:27:
         1b:c5:21:5d:d3:0c:06:56:d9:df:45:83:e7:06:6d:47:53:72:
         ea:6c:e7:db:5e:bd:14:47:19:0c:18:13:73:6b:14:dc:29:6c:
         c0:60:fa:4c:02:74:45:e7:8d:12:bd:1f:cb:77:2c:72:19:ef:
         e8:85:5c:cf:77:04:b7:d4:08:a8:7e:d1:1d:20:7b:76:27:ca:
         8a:5a:2a:a5:e7:15:6c:2d:50:9c:c2:b4:83:45:c2:f7:a5:f0:
         6b:d5:45:6b:88:4c:db:00:26:2f:8e:0a:3c:42:4e:0c:64:18:
         41:a0:6b:4b:d0:78:89:b4:64:34:5b:76:cb:dd:b9:be:6e:28:
         82:ba:6e:11:99:86:88:b6:0d:22:2b:a6:eb:5f:0b:ca:77:5b:
         2e:28:b7:f3:96:c3:8c:9d:0d:2b:59:98:d4:20:87:3a:2e:f4:
         e3:bf:a2:ff:67:4f:3f:1e:ce:ec:59:76:5a:67:81:ba:44:96:
         29:af:05:ce:55:02:b4:d6:68:f0:25:61:8c:91:83:03:fd:e4:
         2c:06:91:b4:32:d8:5b:47:d6:20:55:44:a6:0c:9b:97:bb:94:
         66:25:8c:35:e0:32
-----BEGIN CERTIFICATE-----
MIIEszCCAxugAwIBAgIBBDANBgkqhkiG9w0BAQsFADBEMREwDwYDVQQDEwhzb21l
TmFtZTEQMA4GA1UECxMHcnN5c2xvZzEQMA4GA1UEChMHU29tZU9yZzELMAkGA1UE
BhMCVVMwIBcNMjMwNzA2MTM1MjUwWhgPMjEyMzA2MTIxMzUyNTBaMHcxCzAJBgNV
BAYTAlVTMQswCQYDVQQIDAJDQTERMA8GA1UECgwIU29tZUNvbXAxETAPBgNVBAsM
CFNvbWVVbml0MRAwDgYDVQQDDAdyc3lzbG9nMSMwIQYJKoZIhvcNAQkBFhRhbG9y
YmFjaEBhZGlzY29uLmNvbTCCAaIwDQYJKoZIhvcNAQEBBQADggGPADCCAYoCggGB
AJ2R2tguPZ2uhcPFp/akZvjIkZG4cCDc7egjylP3uFJD86fr+9+KOyywE/pi06FT
pFFxH2jZ/bw5SvvJat/ziISwgLzA9RtCEfZMGtgsYgtdUGQwmtPbwdV/OVPkvege
BJ3JEuDkVykpAbnx5bx0pudLYeZnXGxO7u4iDBsUbegMb+7uw7jd3xXtepZbzIXl
41DEziu/tjfmIPxuRX4JvYR6rwcn9JkjQd822CkxoJaEL/1FLtS0+frcjyPA4Aat
rQpy2vQ7ocvWpjvsRsSV8nGlrQgf5wYYDtuAUZa6JPZkAmvT8HYBNDpyAunL0Kpi
UQyPg77AR5nSknLtU6VJBdTJofRN3hKdGsgXhPOifGdHgkuGHnOG4iYmEJSjmZsI
mXidPTNdhcJGZZSrcLQ7wSaLEbZmJ4gihAO1CEUyjIEjvmLcb6CqXp8D96f1A3A8
eAnQhESMGa9295P8r8b929lMyyB5RHHL5lVhqXqvC6Om7empEa/6o12sl+fvK7ao
NwIDAQABo3sweTAJBgNVHRMEAjAAMCwGCWCGSAGG+EIBDQQfFh1PcGVuU1NMIEdl
bmVyYXRlZCBDZXJ0aWZpY2F0ZTAdBgNVHQ4EFgQUbhV+xGIrkm0i7gzkxTYpOBZi
vokwHwYDVR0jBBgwFoAUsJ9nMyyIiIkfRGJ0nSX/wAYTXdYwDQYJKoZIhvcNAQEL
BQADggGBAGSwRWsMfC0JFI54k4Xv0jGqw1kuhb8p4UZZONT+6sTBg6dKG5Je6BGc
IUidHswx2DEAcv57wRjE9TfzOw4a9j8ZRyLJhwHgTPRdNgqHRkL8bKsm/33KLBmX
yiX8cGZOSYY+gQ/u4lw7aQeLwlIJRthnr4RUu0/z4NoHxWRWLfv5VRNTHcZ4Y0Ai
I09jWTcFx0a2NlMw/pvmAQpUW74bpHLDJxvFIV3TDAZW2d9Fg+cGbUdTcups59te
vRRHGQwYE3NrFNwpbMBg+kwCdEXnjRK9H8t3LHIZ7+iFXM93BLfUCKh+0R0ge3Yn
yopaKqXnFWwtUJzCtINFwvel8GvVRWuITNsAJi+OCjxCTgxkGEGga0vQeIm0ZDRb
dsvdub5uKIK6bhGZhoi2DSIrputfC8p3Wy4ot/OWw4ydDStZmNQghzou9OO/ov9n
Tz8ezuxZdlpngbpElimvBc5VArTWaPAlYYyRgwP95CwGkbQy2FtH1iBVRKYMm5e7
lGYljDXgMg==
-----END CERTIFICATE-----
