Certificate:
    Data:
        Version: 3 (0x2)
        Serial Number: 6563940596885928573 (0x5b17cd321426ba7d)
        Signature Algorithm: sha256WithRSAEncryption
        Issuer: CN=rsyslog ca, OU=Adiscon, O=Adiscon GmbH, L=Grossrinderfeld, ST=BW, C=DE, DC=rsyslog
        Validity
            Not Before: Sep 17 13:35:28 2025 GMT
            Not After : Aug 24 13:35:28 2125 GMT
        Subject: C=DE, ST=BW, L=Grossrinderfeld, O=Adiscon GmbH, OU=Adiscon GmbH, CN=rsyslog-server
        Subject Public Key Info:
            Public Key Algorithm: rsaEncryption
                Public-Key: (3072 bit)
                Modulus:
                    00:f2:73:56:56:86:70:8b:b7:d8:29:26:31:9b:e9:
                    62:75:36:cc:40:41:e1:f6:92:d7:57:c3:f5:37:61:
                    43:c2:a8:4d:73:a6:7b:d5:5a:90:c3:a8:08:0f:2c:
                    f1:06:36:5f:de:57:72:3d:be:b1:01:cc:62:92:f9:
                    36:5c:2c:55:1a:a0:da:3f:b1:35:ad:f9:c2:0d:2a:
                    b1:72:02:c6:af:5f:d3:95:11:f7:7c:53:05:3e:ac:
                    cc:82:cd:06:6c:3a:0a:8b:b5:ae:85:c3:4c:1f:5c:
                    88:46:4e:2e:3d:54:94:63:72:1c:95:c1:3d:b0:db:
                    cc:a4:d5:58:ef:b7:3d:b5:87:8b:ca:82:e0:1b:c0:
                    36:96:39:52:8d:b1:d7:0e:64:7c:13:50:be:59:c3:
                    af:8c:52:90:ba:7a:6f:db:dc:c8:3a:f7:e9:dd:6b:
                    b0:d2:0d:c2:e8:4d:ba:47:2b:d8:3a:73:4d:ab:a6:
                    e6:0c:75:dd:c8:89:31:60:d3:f0:c7:27:c1:0c:6a:
                    bf:5a:19:eb:16:a4:13:c8:4a:ae:95:52:d5:54:8a:
                    4a:fb:77:c8:76:d9:87:ff:83:a9:3b:0c:73:28:cd:
                    2a:da:4f:42:cc:bf:80:23:52:6a:94:5a:1e:3d:e2:
                    0a:61:06:00:3a:cb:14:07:00:74:54:10:db:87:2a:
                    3c:7f:bb:71:06:ce:8e:07:5a:61:3d:c9:9b:90:0a:
                    36:6c:97:cb:d3:55:13:df:5e:68:9a:a9:46:5a:3b:
                    ef:0d:18:c3:11:e4:40:7d:79:d6:bb:f5:15:2c:8b:
                    35:30:d9:f4:f6:5d:be:7c:ac:20:67:23:99:21:01:
                    24:e6:01:a0:6f:ec:4e:ee:96:69:e5:6d:48:b8:bc:
                    41:d4:33:1a:b5:08:d8:2b:52:f5:30:6f:0a:51:e6:
                    e8:bd:3c:ae:98:08:fc:90:e6:82:25:aa:9a:f8:45:
                    9c:3e:fb:07:db:02:5b:ce:9e:c9:65:5e:f1:00:c9:
                    cd:40:62:c7:1d:c7:18:f4:8b:fd
                Exponent: 65537 (0x10001)
        X509v3 extensions:
            X509v3 Basic Constraints: critical
                CA:FALSE
            X509v3 Subject Key Identifier: 
                DC:53:BF:AE:EE:D6:32:D1:E5:45:D3:3E:3A:49:6A:5F:8A:D1:18:8E
            X509v3 Authority Key Identifier: 
                0C:11:36:9D:B0:9C:05:44:64:AC:97:26:40:C0:28:53:23:9D:8E:9A
            X509v3 Key Usage: critical
                Digital Signature, Key Encipherment
            X509v3 Extended Key Usage: critical
                TLS Web Client Authentication
            X509v3 Subject Alternative Name: 
                DNS:testbench.rsyslog.com
    Signature Algorithm: sha256WithRSAEncryption
    Signature Value:
        47:0a:e5:9c:fa:66:0d:34:32:a6:8a:77:d9:22:68:17:d4:56:
        c2:02:fa:cb:37:31:49:ef:21:ad:73:62:f3:f3:a2:fa:41:17:
        8b:6b:b2:dd:dd:ea:a0:0a:3e:e3:6a:df:e2:0e:e1:b6:4c:cc:
        08:c6:37:94:a9:b9:5d:bc:2d:ba:2f:aa:ac:11:c8:7c:f5:4a:
        c9:dd:68:a9:3a:d3:04:55:61:25:ab:96:49:39:65:77:2b:bb:
        91:dc:eb:a5:cb:df:9f:3a:7f:77:11:c9:a7:4d:e1:e7:91:fe:
        48:78:2e:c3:b2:db:ec:42:7d:5b:b0:66:ff:ab:02:7c:78:d9:
        6a:bd:38:52:92:9a:1e:2f:8b:5f:67:d5:96:fe:8c:a3:97:6a:
        8d:c1:2c:8d:0d:0d:a8:6d:7a:e6:dd:1c:1e:4d:de:25:bc:48:
        1d:84:e4:c9:bf:1d:2c:a0:65:71:1a:e9:31:ac:9e:81:6c:f2:
        88:ec:a3:04:48:1c:8c:0d:57:fb:8b:53:76:d5:9c:d2:84:4c:
        2c:d7:44:d9:c3:33:19:b6:62:dc:c3:72:70:02:f5:eb:10:f9:
        14:a6:84:28:54:17:3a:6f:b6:9d:a7:43:57:77:cd:89:74:7c:
        e0:d0:df:fd:85:84:b4:87:d1:67:29:0b:e7:e3:3e:cd:6b:91:
        8e:5e:20:ed:47:48:bb:59:73:4e:c3:aa:58:46:42:73:2e:ab:
        e0:0e:9f:79:46:1e:d0:30:2e:0d:9f:b3:5e:9e:69:79:18:5b:
        e3:86:fe:e2:f6:68:65:e4:cb:dc:9d:f6:8c:66:a4:a6:2b:c5:
        ac:3c:d7:f7:f7:5e:4a:2c:f8:0e:d5:53:42:12:95:44:5f:3e:
        0c:f2:58:32:f3:be:35:35:c6:fc:1b:75:e8:2c:c6:36:35:07:
        f5:80:37:fd:93:14:7d:34:3f:0a:58:cd:1e:db:d3:d2:db:ea:
        b6:22:64:e0:a7:6b:15:af:ce:b7:35:d8:40:db:c3:74:d4:77:
        a9:7f:fa:78:55:8d
-----BEGIN CERTIFICATE-----
MIIFJzCCA4+gAwIBAgIIWxfNMhQmun0wDQYJKoZIhvcNAQELBQAwgYsxEzARBgNV
BAMTCnJzeXNsb2cgY2ExEDAOBgNVBAsTB0FkaXNjb24xFTATBgNVBAoTDEFkaXNj
b24gR21iSDEYMBYGA1UEBxMPR3Jvc3NyaW5kZXJmZWxkMQswCQYDVQQIEwJCVzEL
MAkGA1UEBhMCREUxFzAVBgoJkiaJk/IsZAEZFgdyc3lzbG9nMCAXDTI1MDkxNzEz
MzUyOFoYDzIxMjUwODI0MTMzNTI4WjB7MQswCQYDVQQGEwJERTELMAkGA1UECAwC
QlcxGDAWBgNVBAcMD0dyb3NzcmluZGVyZmVsZDEVMBMGA1UECgwMQWRpc2NvbiBH
bWJIMRUwEwYDVQQLDAxBZGlzY29uIEdtYkgxFzAVBgNVBAMMDnJzeXNsb2ctc2Vy
dmVyMIIBojANBgkqhkiG9w0BAQEFAAOCAY8AMIIBigKCAYEA8nNWVoZwi7fYKSYx
m+lidTbMQEHh9pLXV8P1N2FDwqhNc6Z71VqQw6gIDyzxBjZf3ldyPb6xAcxikvk2
XCxVGqDaP7E1rfnCDSqxcgLGr1/TlRH3fFMFPqzMgs0GbDoKi7WuhcNMH1yIRk4u
PVSUY3IclcE9sNvMpNVY77c9tYeLyoLgG8A2ljlSjbHXDmR8E1C+WcOvjFKQunpv
29zIOvfp3Wuw0g3C6E26RyvYOnNNq6bmDHXdyIkxYNPwxyfBDGq/WhnrFqQTyEqu
lVLVVIpK+3fIdtmH/4OpOwxzKM0q2k9CzL+AI1JqlFoePeIKYQYAOssUBwB0VBDb
hyo8f7txBs6OB1phPcmbkAo2bJfL01UT315omqlGWjvvDRjDEeRAfXnWu/UVLIs1
MNn09l2+fKwgZyOZIQEk5gGgb+xO7pZp5W1IuLxB1DMatQjYK1L1MG8KUebovTyu
mAj8kOaCJaqa+EWcPvsH2wJbzp7JZV7xAMnNQGLHHccY9Iv9AgMBAAGjgZswgZgw
DAYDVR0TAQH/BAIwADAdBgNVHQ4EFgQU3FO/ru7WMtHlRdM+OklqX4rRGI4wHwYD
VR0jBBgwFoAUDBE2nbCcBURkrJcmQMAoUyOdjpowDgYDVR0PAQH/BAQDAgWgMBYG
A1UdJQEB/wQMMAoGCCsGAQUFBwMCMCAGA1UdEQQZMBeCFXRlc3RiZW5jaC5yc3lz
bG9nLmNvbTANBgkqhkiG9w0BAQsFAAOCAYEARwrlnPpmDTQypop32SJoF9RWwgL6
yzcxSe8hrXNi8/Oi+kEXi2uy3d3qoAo+42rf4g7htkzMCMY3lKm5Xbwtui+qrBHI
fPVKyd1oqTrTBFVhJauWSTlldyu7kdzrpcvfnzp/dxHJp03h55H+SHguw7Lb7EJ9
W7Bm/6sCfHjZar04UpKaHi+LX2fVlv6Mo5dqjcEsjQ0NqG165t0cHk3eJbxIHYTk
yb8dLKBlcRrpMayegWzyiOyjBEgcjA1X+4tTdtWc0oRMLNdE2cMzGbZi3MNycAL1
6xD5FKaEKFQXOm+2nadDV3fNiXR84NDf/YWEtIfRZykL5+M+zWuRjl4g7UdIu1lz
TsOqWEZCcy6r4A6feUYe0DAuDZ+zXp5peRhb44b+4vZoZeTL3J32jGakpivFrDzX
9/deSiz4DtVTQhKVRF8+DPJYMvO+NTXG/Bt16CzGNjUH9YA3/ZMUfTQ/CljNHtvT
0tvqtiJk4KdrFa/OtzXYQNvDdNR3qX/6eFWN
-----END CERTIFICATE-----
