Certificate:
    Data:
        Version: 3 (0x2)
        Serial Number: 2 (0x2)
        Signature Algorithm: ecdsa-with-SHA256
        Issuer: C=FI, O=Acme, CN=Mgmt Root CA
        Validity
            Not Before: Nov  8 13:13:02 2019 GMT
            Not After : Nov  7 13:13:02 2020 GMT
        Subject: C=FI, O=Acme, CN=Mgmt
        Subject Public Key Info:
            Public Key Algorithm: id-ecPublicKey
                Public-Key: (256 bit)
                pub:
                    04:88:13:6e:0e:84:48:da:ea:97:5b:80:47:1f:1b:
                    c2:31:51:af:95:81:6a:c9:d3:a4:06:ec:69:d6:b1:
                    ab:e3:b7:47:8a:9e:be:2d:e9:e2:07:7a:de:11:28:
                    3d:27:2e:c9:4e:f0:62:b4:11:9f:68:fd:8b:ca:a0:
                    f6:24:e5:fe:05
                ASN1 OID: prime256v1
                NIST CURVE: P-256
        X509v3 extensions:
            X509v3 Subject Key Identifier: 
                6B:40:BE:F6:25:02:7B:ED:D9:A2:45:12:96:3B:B9:0D:0D:DA:54:81
            X509v3 Authority Key Identifier: 
                keyid:DC:BC:A7:A9:18:84:F1:C6:DB:99:A4:6C:09:45:E1:1B:71:AF:60:2E
                DirName:/C=FI/O=Acme/CN=Mgmt Root CA
                serial:01

            X509v3 Key Usage: critical
                Digital Signature
            X509v3 Extended Key Usage: critical
                TLS Web Server Authentication, TLS Web Client Authentication
            X509v3 Subject Alternative Name: 
                DNS:mgmt.acme.test
    Signature Algorithm: ecdsa-with-SHA256
         30:46:02:21:00:92:1c:67:4c:be:b2:75:1a:5b:7c:c9:d8:29:
         79:8a:57:3d:e1:26:46:f3:e2:42:9a:54:38:d5:00:96:0c:9e:
         cc:02:21:00:a3:7a:15:00:ff:b7:b0:81:67:e6:f7:be:df:71:
         24:19:0f:90:e5:7b:10:ab:1e:d7:28:30:e7:22:bc:29:b9:ea
-----BEGIN CERTIFICATE-----
MIICGzCCAcCgAwIBAgIBAjAKBggqhkjOPQQDAjAzMQswCQYDVQQGEwJGSTENMAsG
A1UECgwEQWNtZTEVMBMGA1UEAwwMTWdtdCBSb290IENBMB4XDTE5MTEwODEzMTMw
MloXDTIwMTEwNzEzMTMwMlowKzELMAkGA1UEBhMCRkkxDTALBgNVBAoMBEFjbWUx
DTALBgNVBAMMBE1nbXQwWTATBgcqhkjOPQIBBggqhkjOPQMBBwNCAASIE24OhEja
6pdbgEcfG8IxUa+VgWrJ06QG7GnWsavjt0eKnr4t6eIHet4RKD0nLslO8GK0EZ9o
/YvKoPYk5f4Fo4HMMIHJMB0GA1UdDgQWBBRrQL72JQJ77dmiRRKWO7kNDdpUgTBb
BgNVHSMEVDBSgBTcvKepGITxxtuZpGwJReEbca9gLqE3pDUwMzELMAkGA1UEBhMC
RkkxDTALBgNVBAoMBEFjbWUxFTATBgNVBAMMDE1nbXQgUm9vdCBDQYIBATAOBgNV
HQ8BAf8EBAMCB4AwIAYDVR0lAQH/BBYwFAYIKwYBBQUHAwEGCCsGAQUFBwMCMBkG
A1UdEQQSMBCCDm1nbXQuYWNtZS50ZXN0MAoGCCqGSM49BAMCA0kAMEYCIQCSHGdM
vrJ1Glt8ydgpeYpXPeEmRvPiQppUONUAlgyezAIhAKN6FQD/t7CBZ+b3vt9xJBkP
kOV7EKse1ygw5yK8Kbnq
-----END CERTIFICATE-----
