Certificate:
    Data:
        Version: 3 (0x2)
        Serial Number: 2 (0x2)
        Signature Algorithm: ecdsa-with-SHA256
        Issuer: C=FI, O=Acme, CN=Mgmt Root CA
        Validity
            Not Before: Nov  7 07:54:42 2019 GMT
            Not After : Nov  6 07:54:42 2020 GMT
        Subject: C=FI, O=Acme, CN=Mgmt
        Subject Public Key Info:
            Public Key Algorithm: id-ecPublicKey
                Public-Key: (256 bit)
                pub:
                    04:5c:9e:ef:e0:7c:67:33:e5:34:93:a2:ee:60:a0:
                    47:fd:07:fe:fe:62:5e:d0:dc:43:4d:04:fd:66:d0:
                    85:56:be:79:04:b5:08:89:90:b7:a5:9e:f4:a8:e2:
                    32:02:34:87:9a:05:80:22:a4:f9:6e:39:c7:9d:90:
                    d9:fd:f9:fd:1e
                ASN1 OID: prime256v1
                NIST CURVE: P-256
        X509v3 extensions:
            X509v3 Subject Key Identifier: 
                C9:CA:AE:D1:B6:7D:38:C8:03:7E:B7:6C:81:9A:DA:26:A4:75:AB:0C
            X509v3 Authority Key Identifier: 
                keyid:73:76:D2:38:EF:48:E1:FE:61:38:4B:E4:F9:E8:44:BD:FC:34:B6:65
                DirName:/C=FI/O=Acme/CN=Mgmt Root CA
                serial:01

            X509v3 Key Usage: critical
                Digital Signature
            X509v3 Extended Key Usage: critical
                TLS Web Server Authentication, TLS Web Client Authentication
            X509v3 Subject Alternative Name: 
                DNS:mgmt.acme.test
    Signature Algorithm: ecdsa-with-SHA256
         30:46:02:21:00:ee:c4:53:aa:4a:5b:ad:3a:c9:d2:f2:f9:43:
         8c:8c:01:3f:db:ba:63:cf:1a:bb:99:42:77:85:eb:17:6b:27:
         ed:02:21:00:ad:22:02:7d:3d:f7:f6:c6:4b:13:e3:a9:48:dd:
         0d:37:b9:a7:aa:e0:96:b8:9b:d0:af:14:47:13:34:02:8c:f4
-----BEGIN CERTIFICATE-----
MIICGzCCAcCgAwIBAgIBAjAKBggqhkjOPQQDAjAzMQswCQYDVQQGEwJGSTENMAsG
A1UECgwEQWNtZTEVMBMGA1UEAwwMTWdtdCBSb290IENBMB4XDTE5MTEwNzA3NTQ0
MloXDTIwMTEwNjA3NTQ0MlowKzELMAkGA1UEBhMCRkkxDTALBgNVBAoMBEFjbWUx
DTALBgNVBAMMBE1nbXQwWTATBgcqhkjOPQIBBggqhkjOPQMBBwNCAARcnu/gfGcz
5TSTou5goEf9B/7+Yl7Q3ENNBP1m0IVWvnkEtQiJkLelnvSo4jICNIeaBYAipPlu
OcedkNn9+f0eo4HMMIHJMB0GA1UdDgQWBBTJyq7Rtn04yAN+t2yBmtompHWrDDBb
BgNVHSMEVDBSgBRzdtI470jh/mE4S+T56ES9/DS2ZaE3pDUwMzELMAkGA1UEBhMC
RkkxDTALBgNVBAoMBEFjbWUxFTATBgNVBAMMDE1nbXQgUm9vdCBDQYIBATAOBgNV
HQ8BAf8EBAMCB4AwIAYDVR0lAQH/BBYwFAYIKwYBBQUHAwEGCCsGAQUFBwMCMBkG
A1UdEQQSMBCCDm1nbXQuYWNtZS50ZXN0MAoGCCqGSM49BAMCA0kAMEYCIQDuxFOq
SlutOsnS8vlDjIwBP9u6Y88au5lCd4XrF2sn7QIhAK0iAn099/bGSxPjqUjdDTe5
p6rglrib0K8URxM0Aoz0
-----END CERTIFICATE-----
