Certificate:
    Data:
        Version: 3 (0x2)
        Serial Number: 1 (0x1)
        Signature Algorithm: ecdsa-with-SHA256
        Issuer: C = FI, O = Acme, CN = Mgmt Root CA
        Validity
            Not Before: Nov  8 13:13:02 2019 GMT
            Not After : Aug  4 13:13:02 2022 GMT
        Subject: C = FI, O = Acme, CN = Mgmt Root CA
        Subject Public Key Info:
            Public Key Algorithm: id-ecPublicKey
                Public-Key: (256 bit)
                pub:
                    04:fa:f5:3b:78:26:8d:38:8c:05:4f:15:ed:a2:7d:
                    11:08:38:2f:6d:e0:91:5f:4a:6e:6c:1f:4f:3f:5c:
                    ba:24:24:60:00:8e:26:e0:3f:dd:d6:ed:e7:73:cd:
                    b0:bc:90:bb:9b:22:da:04:02:35:fd:4a:4c:9c:be:
                    15:7b:21:bb:12
                ASN1 OID: prime256v1
                NIST CURVE: P-256
        X509v3 extensions:
            X509v3 Subject Alternative Name: 
                email:mgmt-root@acme.test
            X509v3 Subject Key Identifier: 
                DC:BC:A7:A9:18:84:F1:C6:DB:99:A4:6C:09:45:E1:1B:71:AF:60:2E
            X509v3 Basic Constraints: 
                CA:TRUE
            X509v3 Key Usage: critical
                Certificate Sign, CRL Sign
    Signature Algorithm: ecdsa-with-SHA256
         30:44:02:20:20:00:9a:2e:4c:16:84:65:66:40:3d:7d:11:85:
         73:31:0d:65:4e:77:fe:40:87:ae:e1:53:ce:8d:03:58:e9:8e:
         02:20:4b:4f:79:55:48:f3:38:7b:af:f5:24:4f:80:2c:e3:26:
         1d:d1:d1:a4:ea:1a:12:bf:ac:af:33:a0:bc:6c:f0:37
-----BEGIN CERTIFICATE-----
MIIBszCCAVqgAwIBAgIBATAKBggqhkjOPQQDAjAzMQswCQYDVQQGEwJGSTENMAsG
A1UECgwEQWNtZTEVMBMGA1UEAwwMTWdtdCBSb290IENBMB4XDTE5MTEwODEzMTMw
MloXDTIyMDgwNDEzMTMwMlowMzELMAkGA1UEBhMCRkkxDTALBgNVBAoMBEFjbWUx
FTATBgNVBAMMDE1nbXQgUm9vdCBDQTBZMBMGByqGSM49AgEGCCqGSM49AwEHA0IA
BPr1O3gmjTiMBU8V7aJ9EQg4L23gkV9KbmwfTz9cuiQkYACOJuA/3dbt53PNsLyQ
u5si2gQCNf1KTJy+FXshuxKjXzBdMB4GA1UdEQQXMBWBE21nbXQtcm9vdEBhY21l
LnRlc3QwHQYDVR0OBBYEFNy8p6kYhPHG25mkbAlF4Rtxr2AuMAwGA1UdEwQFMAMB
Af8wDgYDVR0PAQH/BAQDAgEGMAoGCCqGSM49BAMCA0cAMEQCICAAmi5MFoRlZkA9
fRGFczENZU53/kCHruFTzo0DWOmOAiBLT3lVSPM4e6/1JE+ALOMmHdHRpOoaEr+s
rzOgvGzwNw==
-----END CERTIFICATE-----
