Certificate:
    Data:
        Version: 3 (0x2)
        Serial Number: 1 (0x1)
        Signature Algorithm: ecdsa-with-SHA256
        Issuer: C = FI, O = Acme, CN = Mgmt Root CA
        Validity
            Not Before: Nov  7 07:54:42 2019 GMT
            Not After : Aug  3 07:54:42 2022 GMT
        Subject: C = FI, O = Acme, CN = Mgmt Root CA
        Subject Public Key Info:
            Public Key Algorithm: id-ecPublicKey
                Public-Key: (256 bit)
                pub:
                    04:01:d1:1a:08:2e:35:ba:6e:d5:a4:f4:42:ac:09:
                    f4:81:cb:47:c3:5d:8c:cb:71:e0:f8:c8:73:8e:53:
                    b8:00:e4:7a:ba:0f:14:ba:a3:90:40:45:4c:2f:c6:
                    04:25:34:a0:8f:b8:5f:f3:5e:27:fc:eb:6d:70:b6:
                    6d:dd:c8:af:41
                ASN1 OID: prime256v1
                NIST CURVE: P-256
        X509v3 extensions:
            X509v3 Subject Alternative Name: 
                email:mgmt-root@acme.test
            X509v3 Subject Key Identifier: 
                73:76:D2:38:EF:48:E1:FE:61:38:4B:E4:F9:E8:44:BD:FC:34:B6:65
            X509v3 Basic Constraints: 
                CA:TRUE
            X509v3 Key Usage: critical
                Certificate Sign, CRL Sign
    Signature Algorithm: ecdsa-with-SHA256
         30:45:02:20:3e:07:28:98:95:b0:e4:59:27:af:1d:6b:30:d6:
         34:c3:a8:ca:36:6c:65:ab:4f:96:3c:c8:3e:97:1e:b3:8d:83:
         02:21:00:e4:23:f2:ca:68:3a:63:be:68:79:68:f1:98:e7:7f:
         6c:47:01:31:cc:3c:2c:c5:75:16:95:74:4e:53:72:50:be
-----BEGIN CERTIFICATE-----
MIIBtDCCAVqgAwIBAgIBATAKBggqhkjOPQQDAjAzMQswCQYDVQQGEwJGSTENMAsG
A1UECgwEQWNtZTEVMBMGA1UEAwwMTWdtdCBSb290IENBMB4XDTE5MTEwNzA3NTQ0
MloXDTIyMDgwMzA3NTQ0MlowMzELMAkGA1UEBhMCRkkxDTALBgNVBAoMBEFjbWUx
FTATBgNVBAMMDE1nbXQgUm9vdCBDQTBZMBMGByqGSM49AgEGCCqGSM49AwEHA0IA
BAHRGgguNbpu1aT0QqwJ9IHLR8NdjMtx4PjIc45TuADkeroPFLqjkEBFTC/GBCU0
oI+4X/NeJ/zrbXC2bd3Ir0GjXzBdMB4GA1UdEQQXMBWBE21nbXQtcm9vdEBhY21l
LnRlc3QwHQYDVR0OBBYEFHN20jjvSOH+YThL5PnoRL38NLZlMAwGA1UdEwQFMAMB
Af8wDgYDVR0PAQH/BAQDAgEGMAoGCCqGSM49BAMCA0gAMEUCID4HKJiVsORZJ68d
azDWNMOoyjZsZatPljzIPpces42DAiEA5CPyymg6Y75oeWjxmOd/bEcBMcw8LMV1
FpV0TlNyUL4=
-----END CERTIFICATE-----
